target datalayout = "e-m:e-p270:32:32-p271:32:32-p272:64:64-i64:64-i128:128-f80:128-n8:16:32:64-S128"
target triple = "x86_64-pc-linux-gnu"

%struct.ossl_cmp_itav_st = type { ptr, %union.anon }
%union.anon = type { ptr }
%struct.ossl_cmp_rootcakeyupdate_st = type { ptr, ptr, ptr }

@.str.12 = private unnamed_addr constant [32 x i8] c"../openssl/crypto/cmp/cmp_asn.c\00", align 1
@__func__.OSSL_CMP_ITAV_get0_rootCaKeyUpdate = private unnamed_addr constant [35 x i8] c"OSSL_CMP_ITAV_get0_rootCaKeyUpdate\00", align 1

; Function Attrs: nounwind uwtable
define i32 @OSSL_CMP_ITAV_get0_rootCaKeyUpdate(ptr noundef %0, ptr noundef %1, ptr noundef %2, ptr noundef %3) #0 {
  %5 = alloca i32, align 4
  %6 = alloca ptr, align 8
  %7 = alloca ptr, align 8
  %8 = alloca ptr, align 8
  %9 = alloca ptr, align 8
  %10 = alloca ptr, align 8
  %11 = alloca i32, align 4
  store ptr %0, ptr %6, align 8, !tbaa !28
  store ptr %1, ptr %7, align 8, !tbaa !74
  store ptr %2, ptr %8, align 8, !tbaa !74
  store ptr %3, ptr %9, align 8, !tbaa !74
  call void @llvm.lifetime.start.p0(i64 8, ptr %10) #4
  %12 = load ptr, ptr %6, align 8, !tbaa !28
  %13 = icmp eq ptr %12, null
  br i1 %13, label %17, label %14

14:                                               ; preds = %4
  %15 = load ptr, ptr %7, align 8, !tbaa !74
  %16 = icmp eq ptr %15, null
  br i1 %16, label %17, label %18

17:                                               ; preds = %14, %4
  call void @ERR_new()
  call void @ERR_set_debug(ptr noundef @.str.12, i32 noundef 362, ptr noundef @__func__.OSSL_CMP_ITAV_get0_rootCaKeyUpdate)
  call void (i32, i32, ptr, ...) @ERR_set_error(i32 noundef 58, i32 noundef 786690, ptr noundef null)
  store i32 0, ptr %5, align 4
  store i32 1, ptr %11, align 4
  br label %67

18:                                               ; preds = %14
  %19 = load ptr, ptr %6, align 8, !tbaa !28
  %20 = getelementptr inbounds nuw %struct.ossl_cmp_itav_st, ptr %19, i32 0, i32 0
  %21 = load ptr, ptr %20, align 8, !tbaa !54
  %22 = call i32 @OBJ_obj2nid(ptr noundef %21)
  %23 = icmp ne i32 %22, 1224
  br i1 %23, label %24, label %25

24:                                               ; preds = %18
  call void @ERR_new()
  call void @ERR_set_debug(ptr noundef @.str.12, i32 noundef 366, ptr noundef @__func__.OSSL_CMP_ITAV_get0_rootCaKeyUpdate)
  call void (i32, i32, ptr, ...) @ERR_set_error(i32 noundef 58, i32 noundef 524550, ptr noundef null)
  store i32 0, ptr %5, align 4
  store i32 1, ptr %11, align 4
  br label %67

25:                                               ; preds = %18
  %26 = load ptr, ptr %6, align 8, !tbaa !28
  %27 = getelementptr inbounds nuw %struct.ossl_cmp_itav_st, ptr %26, i32 0, i32 1
  %28 = load ptr, ptr %27, align 8, !tbaa !56
  store ptr %28, ptr %10, align 8, !tbaa !32
  %29 = load ptr, ptr %10, align 8, !tbaa !32
  %30 = icmp ne ptr %29, null
  br i1 %30, label %31, label %35

31:                                               ; preds = %25
  %32 = load ptr, ptr %10, align 8, !tbaa !32
  %33 = getelementptr inbounds nuw %struct.ossl_cmp_rootcakeyupdate_st, ptr %32, i32 0, i32 0
  %34 = load ptr, ptr %33, align 8, !tbaa !76
  br label %36

35:                                               ; preds = %25
  br label %36

36:                                               ; preds = %35, %31
  %37 = phi ptr [ %34, %31 ], [ null, %35 ]
  %38 = load ptr, ptr %7, align 8, !tbaa !74
  store ptr %37, ptr %38, align 8, !tbaa !72
  %39 = load ptr, ptr %8, align 8, !tbaa !74
  %40 = icmp ne ptr %39, null
  br i1 %40, label %41, label %52

41:                                               ; preds = %36
  %42 = load ptr, ptr %10, align 8, !tbaa !32
  %43 = icmp ne ptr %42, null
  br i1 %43, label %44, label %48

44:                                               ; preds = %41
  %45 = load ptr, ptr %10, align 8, !tbaa !32
  %46 = getelementptr inbounds nuw %struct.ossl_cmp_rootcakeyupdate_st, ptr %45, i32 0, i32 1
  %47 = load ptr, ptr %46, align 8, !tbaa !78
  br label %49

48:                                               ; preds = %41
  br label %49

49:                                               ; preds = %48, %44
  %50 = phi ptr [ %47, %44 ], [ null, %48 ]
  %51 = load ptr, ptr %8, align 8, !tbaa !74
  store ptr %50, ptr %51, align 8, !tbaa !72
  br label %52

52:                                               ; preds = %49, %36
  %53 = load ptr, ptr %9, align 8, !tbaa !74
  %54 = icmp ne ptr %53, null
  br i1 %54, label %55, label %66

55:                                               ; preds = %52
  %56 = load ptr, ptr %10, align 8, !tbaa !32
  %57 = icmp ne ptr %56, null
  br i1 %57, label %58, label %62

58:                                               ; preds = %55
  %59 = load ptr, ptr %10, align 8, !tbaa !32
  %60 = getelementptr inbounds nuw %struct.ossl_cmp_rootcakeyupdate_st, ptr %59, i32 0, i32 2
  %61 = load ptr, ptr %60, align 8, !tbaa !79
  br label %63

62:                                               ; preds = %55
  br label %63

63:                                               ; preds = %62, %58
  %64 = phi ptr [ %61, %58 ], [ null, %62 ]
  %65 = load ptr, ptr %9, align 8, !tbaa !74
  store ptr %64, ptr %65, align 8, !tbaa !72
  br label %66

66:                                               ; preds = %63, %52
  store i32 1, ptr %5, align 4
  store i32 1, ptr %11, align 4
  br label %67

67:                                               ; preds = %66, %24, %17
  call void @llvm.lifetime.end.p0(i64 8, ptr %10) #4
  %68 = load i32, ptr %5, align 4
  ret i32 %68
}