; Function Attrs: nounwind uwtable
define range(i32 0, 2) i32 @OSSL_CMP_ITAV_get0_rootCaKeyUpdate(ptr noundef readonly captures(address_is_null) %0, ptr noundef writeonly captures(address_is_null) %1, ptr noundef writeonly captures(address_is_null) %2, ptr noundef writeonly captures(address_is_null) %3) local_unnamed_addr #1 {
  %5 = icmp eq ptr %0, null
  %6 = icmp eq ptr %1, null
  %or.cond = or i1 %5, %6
  br i1 %or.cond, label %7, label %8

7:                                                ; preds = %4
  tail call void @ERR_new() #6
  tail call void @ERR_set_debug(ptr noundef nonnull @.str.12, i32 noundef 362, ptr noundef nonnull @__func__.OSSL_CMP_ITAV_get0_rootCaKeyUpdate) #6
  tail call void (i32, i32, ptr, ...) @ERR_set_error(i32 noundef 58, i32 noundef 786690, ptr noundef null) #6
  br label %23

8:                                                ; preds = %4
  %9 = load ptr, ptr %0, align 8, !tbaa !3
  %10 = tail call i32 @OBJ_obj2nid(ptr noundef %9) #6
  %.not = icmp eq i32 %10, 1224
  br i1 %.not, label %12, label %11

11:                                               ; preds = %8
  tail call void @ERR_new() #6
  tail call void @ERR_set_debug(ptr noundef nonnull @.str.12, i32 noundef 366, ptr noundef nonnull @__func__.OSSL_CMP_ITAV_get0_rootCaKeyUpdate) #6
  tail call void (i32, i32, ptr, ...) @ERR_set_error(i32 noundef 58, i32 noundef 524550, ptr noundef null) #6
  br label %23

12:                                               ; preds = %8
  %13 = getelementptr inbounds nuw i8, ptr %0, i64 8
  %14 = load ptr, ptr %13, align 8, !tbaa !9
  %.not21 = icmp eq ptr %14, null
  br i1 %.not21, label %15, label %.thread

15:                                               ; preds = %12
  store ptr null, ptr %1, align 8, !tbaa !16
  %.not22 = icmp eq ptr %2, null
  br i1 %.not22, label %.thread29, label %17

.thread:                                          ; preds = %12
  %16 = load ptr, ptr %14, align 8, !tbaa !18
  store ptr %16, ptr %1, align 8, !tbaa !16
  %.not2224 = icmp eq ptr %2, null
  br i1 %.not2224, label %.thread26, label %.thread32

17:                                               ; preds = %15
  store ptr null, ptr %2, align 8, !tbaa !16
  %.not23 = icmp eq ptr %3, null
  br i1 %.not23, label %23, label %.thread31

.thread32:                                        ; preds = %.thread
  %18 = getelementptr inbounds nuw i8, ptr %14, i64 8
  %19 = load ptr, ptr %18, align 8, !tbaa !20
  store ptr %19, ptr %2, align 8, !tbaa !16
  %.not2333 = icmp eq ptr %3, null
  br i1 %.not2333, label %23, label %.thread28

.thread29:                                        ; preds = %15
  %.not2330 = icmp eq ptr %3, null
  br i1 %.not2330, label %23, label %.thread31

.thread26:                                        ; preds = %.thread
  %.not2327 = icmp eq ptr %3, null
  br i1 %.not2327, label %23, label %.thread28

.thread28:                                        ; preds = %.thread32, %.thread26
  %20 = getelementptr inbounds nuw i8, ptr %14, i64 16
  %21 = load ptr, ptr %20, align 8, !tbaa !21
  br label %.thread31

.thread31:                                        ; preds = %17, %.thread29, %.thread28
  %22 = phi ptr [ %21, %.thread28 ], [ null, %.thread29 ], [ null, %17 ]
  store ptr %22, ptr %3, align 8, !tbaa !16
  br label %23

23:                                               ; preds = %.thread32, %.thread29, %.thread26, %17, %.thread31, %11, %7
  %.0 = phi i32 [ 0, %7 ], [ 0, %11 ], [ 1, %.thread31 ], [ 1, %17 ], [ 1, %.thread26 ], [ 1, %.thread29 ], [ 1, %.thread32 ]
  ret i32 %.0
}